; ModuleID = '7/70.c'
source_filename = "7/70.c"
target datalayout = "e-m:e-p270:32:32-p271:32:32-p272:64:64-i64:64-f80:128-n8:16:32:64-S128"
target triple = "x86_64-pc-linux-gnu"

; Function Attrs: noinline nounwind uwtable
define dso_local void @main() #0 {
  %1 = alloca i32, align 4
  %2 = alloca i32, align 4
  %3 = alloca i32, align 4
  %4 = alloca i32, align 4
  %5 = alloca i32, align 4
  %6 = alloca i32, align 4
  %7 = alloca i32, align 4
  %8 = alloca i32, align 4
  %9 = alloca [256 x i8], align 16
  %10 = alloca [256 x i8], align 16
  %11 = alloca [256 x i8], align 16
  %12 = getelementptr inbounds [256 x i8], [256 x i8]* %9, i64 0, i64 0
  %13 = call i32 (i8*, ...) bitcast (i32 (...)* @gets to i32 (i8*, ...)*)(i8* %12)
  %14 = getelementptr inbounds [256 x i8], [256 x i8]* %9, i64 0, i64 0
  %15 = call i64 @strlen(i8* %14) #3
  %16 = trunc i64 %15 to i32
  store i32 %16, i32* %5, align 4
  %17 = getelementptr inbounds [256 x i8], [256 x i8]* %10, i64 0, i64 0
  %18 = call i32 (i8*, ...) bitcast (i32 (...)* @gets to i32 (i8*, ...)*)(i8* %17)
  %19 = getelementptr inbounds [256 x i8], [256 x i8]* %10, i64 0, i64 0
  %20 = call i64 @strlen(i8* %19) #3
  %21 = trunc i64 %20 to i32
  store i32 %21, i32* %6, align 4
  %22 = getelementptr inbounds [256 x i8], [256 x i8]* %11, i64 0, i64 0
  %23 = call i32 (i8*, ...) bitcast (i32 (...)* @gets to i32 (i8*, ...)*)(i8* %22)
  %24 = getelementptr inbounds [256 x i8], [256 x i8]* %11, i64 0, i64 0
  %25 = call i64 @strlen(i8* %24) #3
  %26 = trunc i64 %25 to i32
  store i32 %26, i32* %7, align 4
  store i32 0, i32* %1, align 4
  br label %27

27:                                               ; preds = %63, %0
  %28 = load i32, i32* %1, align 4
  %29 = load i32, i32* %5, align 4
  %30 = load i32, i32* %6, align 4
  %31 = sub nsw i32 %29, %30
  %32 = icmp sle i32 %28, %31
  br i1 %32, label %33, label %66

33:                                               ; preds = %27
  store i32 1, i32* %8, align 4
  store i32 0, i32* %2, align 4
  br label %34

34:                                               ; preds = %54, %33
  %35 = load i32, i32* %2, align 4
  %36 = load i32, i32* %6, align 4
  %37 = icmp slt i32 %35, %36
  br i1 %37, label %38, label %57

38:                                               ; preds = %34
  %39 = load i32, i32* %1, align 4
  %40 = load i32, i32* %2, align 4
  %41 = add nsw i32 %39, %40
  %42 = sext i32 %41 to i64
  %43 = getelementptr inbounds [256 x i8], [256 x i8]* %9, i64 0, i64 %42
  %44 = load i8, i8* %43, align 1
  %45 = sext i8 %44 to i32
  %46 = load i32, i32* %2, align 4
  %47 = sext i32 %46 to i64
  %48 = getelementptr inbounds [256 x i8], [256 x i8]* %10, i64 0, i64 %47
  %49 = load i8, i8* %48, align 1
  %50 = sext i8 %49 to i32
  %51 = icmp ne i32 %45, %50
  br i1 %51, label %52, label %53

52:                                               ; preds = %38
  store i32 0, i32* %8, align 4
  br label %57

53:                                               ; preds = %38
  br label %54

54:                                               ; preds = %53
  %55 = load i32, i32* %2, align 4
  %56 = add nsw i32 %55, 1
  store i32 %56, i32* %2, align 4
  br label %34

57:                                               ; preds = %52, %34
  %58 = load i32, i32* %8, align 4
  %59 = icmp eq i32 %58, 1
  br i1 %59, label %60, label %62

60:                                               ; preds = %57
  %61 = load i32, i32* %1, align 4
  store i32 %61, i32* %4, align 4
  br label %66

62:                                               ; preds = %57
  br label %63

63:                                               ; preds = %62
  %64 = load i32, i32* %1, align 4
  %65 = add nsw i32 %64, 1
  store i32 %65, i32* %1, align 4
  br label %27

66:                                               ; preds = %60, %27
  %67 = load i32, i32* %8, align 4
  %68 = icmp eq i32 %67, 1
  br i1 %68, label %69, label %88

69:                                               ; preds = %66
  store i32 0, i32* %3, align 4
  br label %70

70:                                               ; preds = %84, %69
  %71 = load i32, i32* %3, align 4
  %72 = load i32, i32* %7, align 4
  %73 = icmp slt i32 %71, %72
  br i1 %73, label %74, label %87

74:                                               ; preds = %70
  %75 = load i32, i32* %3, align 4
  %76 = sext i32 %75 to i64
  %77 = getelementptr inbounds [256 x i8], [256 x i8]* %11, i64 0, i64 %76
  %78 = load i8, i8* %77, align 1
  %79 = load i32, i32* %4, align 4
  %80 = load i32, i32* %3, align 4
  %81 = add nsw i32 %79, %80
  %82 = sext i32 %81 to i64
  %83 = getelementptr inbounds [256 x i8], [256 x i8]* %9, i64 0, i64 %82
  store i8 %78, i8* %83, align 1
  br label %84

84:                                               ; preds = %74
  %85 = load i32, i32* %3, align 4
  %86 = add nsw i32 %85, 1
  store i32 %86, i32* %3, align 4
  br label %70

87:                                               ; preds = %70
  br label %88

88:                                               ; preds = %87, %66
  %89 = getelementptr inbounds [256 x i8], [256 x i8]* %9, i64 0, i64 0
  %90 = call i32 @puts(i8* %89)
  ret void
}

declare dso_local i32 @gets(...) #1

; Function Attrs: nounwind readonly
declare dso_local i64 @strlen(i8*) #2

declare dso_local i32 @puts(i8*) #1


!llvm.module.flags = !{!0}
!llvm.ident = !{!1}

!0 = !{i32 1, !"wchar_size", i32 4}
!1 = !{!"clang version 10.0.0-4ubuntu1 "}
